target datalayout = "e-m:e-p270:32:32-p271:32:32-p272:64:64-i64:64-i128:128-f80:128-n8:16:32:64-S128"
target triple = "x86_64-pc-linux-gnu"

%"class.cvc5::internal::Integer" = type { %class.__gmp_expr }
%class.__gmp_expr = type { [1 x %struct.__mpz_struct] }
%struct.__mpz_struct = type { i32, i32, ptr }

@.str = private unnamed_addr constant [12 x i8] c"mpz_set_str\00", align 1
@_ZTISt16invalid_argument = external constant ptr

; Function Attrs: mustprogress uwtable
define linkonce_odr hidden void @_ZN10__gmp_exprIA1_12__mpz_structS1_EC2EPKci(ptr noundef nonnull align 8 dereferenceable(16) %0, ptr noundef %1, i32 noundef %2) unnamed_addr #0 comdat align 2 personality ptr @__gxx_personality_v0 {
  %4 = alloca ptr, align 8
  %5 = alloca ptr, align 8
  %6 = alloca i32, align 4
  %7 = alloca ptr, align 8
  %8 = alloca i32, align 4
  store ptr %0, ptr %4, align 8, !tbaa !12
  store ptr %1, ptr %5, align 8, !tbaa !8
  store i32 %2, ptr %6, align 4, !tbaa !10
  %9 = load ptr, ptr %4, align 8
  %10 = getelementptr inbounds nuw %class.__gmp_expr, ptr %9, i32 0, i32 0
  %11 = getelementptr inbounds [1 x %struct.__mpz_struct], ptr %10, i64 0, i64 0
  %12 = load ptr, ptr %5, align 8, !tbaa !8
  %13 = load i32, ptr %6, align 4, !tbaa !10
  %14 = call i32 @__gmpz_init_set_str(ptr noundef %11, ptr noundef %12, i32 noundef %13)
  %15 = icmp ne i32 %14, 0
  br i1 %15, label %16, label %25

16:                                               ; preds = %3
  %17 = getelementptr inbounds nuw %class.__gmp_expr, ptr %9, i32 0, i32 0
  %18 = getelementptr inbounds [1 x %struct.__mpz_struct], ptr %17, i64 0, i64 0
  call void @__gmpz_clear(ptr noundef %18)
  %19 = call ptr @__cxa_allocate_exception(i64 16) #16
  invoke void @_ZNSt16invalid_argumentC1EPKc(ptr noundef nonnull align 8 dereferenceable(16) %19, ptr noundef @.str)
          to label %20 unwind label %21

20:                                               ; preds = %16
  call void @__cxa_throw(ptr %19, ptr @_ZTISt16invalid_argument, ptr @_ZNSt16invalid_argumentD1Ev) #17
  unreachable

21:                                               ; preds = %16
  %22 = landingpad { ptr, i32 }
          cleanup
  %23 = extractvalue { ptr, i32 } %22, 0
  store ptr %23, ptr %7, align 8
  %24 = extractvalue { ptr, i32 } %22, 1
  store i32 %24, ptr %8, align 4
  call void @__cxa_free_exception(ptr %19) #16
  br label %26

25:                                               ; preds = %3
  ret void

26:                                               ; preds = %21
  %27 = load ptr, ptr %7, align 8
  %28 = load i32, ptr %8, align 4
  %29 = insertvalue { ptr, i32 } poison, ptr %27, 0
  %30 = insertvalue { ptr, i32 } %29, i32 %28, 1
  resume { ptr, i32 } %30
}

; Function Attrs: mustprogress uwtable
define hidden void @_ZN4cvc58internal7IntegerC2EPKcj(ptr noundef nonnull align 8 dereferenceable(16) %0, ptr noundef %1, i32 noundef %2) unnamed_addr #0 align 2 {
  %4 = alloca ptr, align 8
  %5 = alloca ptr, align 8
  %6 = alloca i32, align 4
  store ptr %0, ptr %4, align 8, !tbaa !3
  store ptr %1, ptr %5, align 8, !tbaa !8
  store i32 %2, ptr %6, align 4, !tbaa !10
  %7 = load ptr, ptr %4, align 8
  %8 = getelementptr inbounds nuw %"class.cvc5::internal::Integer", ptr %7, i32 0, i32 0
  %9 = load ptr, ptr %5, align 8, !tbaa !8
  %10 = load i32, ptr %6, align 4, !tbaa !10
  call void @_ZN10__gmp_exprIA1_12__mpz_structS1_EC2EPKci(ptr noundef nonnull align 8 dereferenceable(16) %8, ptr noundef %9, i32 noundef %10)
  ret void
}