; Function Attrs: mustprogress uwtable
define hidden void @_ZN4cvc58internal7IntegerC2EPKcj(ptr noundef nonnull align 8 dereferenceable(16) %0, ptr noundef %1, i32 noundef %2) unnamed_addr #0 align 2 personality ptr @__gxx_personality_v0 {
  %4 = tail call i32 @__gmpz_init_set_str(ptr noundef nonnull align 8 dereferenceable(16) %0, ptr noundef %1, i32 noundef %2)
  %.not.i = icmp eq i32 %4, 0
  br i1 %.not.i, label %_ZN10__gmp_exprIA1_12__mpz_structS1_EC2EPKci.exit, label %5

5:                                                ; preds = %3
  tail call void @__gmpz_clear(ptr noundef nonnull align 8 dereferenceable(16) %0)
  %6 = tail call ptr @__cxa_allocate_exception(i64 16) #16
  invoke void @_ZNSt16invalid_argumentC1EPKc(ptr noundef nonnull align 8 dereferenceable(16) %6, ptr noundef nonnull @.str)
          to label %7 unwind label %8

7:                                                ; preds = %5
  tail call void @__cxa_throw(ptr nonnull %6, ptr nonnull @_ZTISt16invalid_argument, ptr nonnull @_ZNSt16invalid_argumentD1Ev) #17
  unreachable

8:                                                ; preds = %5
  %9 = landingpad { ptr, i32 }
          cleanup
  tail call void @__cxa_free_exception(ptr nonnull %6) #16
  resume { ptr, i32 } %9

_ZN10__gmp_exprIA1_12__mpz_structS1_EC2EPKci.exit: ; preds = %3
  ret void
}